target datalayout = "e-m:e-p270:32:32-p271:32:32-p272:64:64-i64:64-i128:128-f80:128-n8:16:32:64-S128"
target triple = "x86_64-pc-linux-gnu"

%"class.icu_77::UnicodeString" = type { %"class.icu_77::Replaceable", %"union.icu_77::UnicodeString::StackBufferOrFields" }
%"class.icu_77::Replaceable" = type { %"class.icu_77::UObject" }
%"class.icu_77::UObject" = type { ptr }
%"union.icu_77::UnicodeString::StackBufferOrFields" = type { %struct.anon.0, [32 x i8] }
%struct.anon.0 = type { i16, i32, i32, ptr }
%struct.anon = type { i16, [27 x i16] }
%"struct.icu_77::number::impl::AffixTag" = type { i32, i32, i32, i32 }

; Function Attrs: inlinehint mustprogress nounwind uwtable
define linkonce_odr noundef ptr @_ZNK6icu_7713UnicodeString13getArrayStartEv(ptr noundef nonnull align 8 dereferenceable(64) %0) #7 comdat align 2 {
  %2 = alloca ptr, align 8
  store ptr %0, ptr %2, align 8, !tbaa !10
  %3 = load ptr, ptr %2, align 8
  %4 = getelementptr inbounds nuw %"class.icu_77::UnicodeString", ptr %3, i32 0, i32 1
  %5 = getelementptr inbounds nuw %struct.anon.0, ptr %4, i32 0, i32 0
  %6 = load i16, ptr %5, align 8, !tbaa !21
  %7 = sext i16 %6 to i32
  %8 = and i32 %7, 2
  %9 = icmp ne i32 %8, 0
  br i1 %9, label %10, label %14

10:                                               ; preds = %1
  %11 = getelementptr inbounds nuw %"class.icu_77::UnicodeString", ptr %3, i32 0, i32 1
  %12 = getelementptr inbounds nuw %struct.anon, ptr %11, i32 0, i32 1
  %13 = getelementptr inbounds [27 x i16], ptr %12, i64 0, i64 0
  br label %18

14:                                               ; preds = %1
  %15 = getelementptr inbounds nuw %"class.icu_77::UnicodeString", ptr %3, i32 0, i32 1
  %16 = getelementptr inbounds nuw %struct.anon.0, ptr %15, i32 0, i32 3
  %17 = load ptr, ptr %16, align 8, !tbaa !21
  br label %18

18:                                               ; preds = %14, %10
  %19 = phi ptr [ %13, %10 ], [ %17, %14 ]
  ret ptr %19
}

; Function Attrs: inlinehint mustprogress uwtable
define linkonce_odr noundef zeroext i16 @_ZNK6icu_7713UnicodeString8doCharAtEi(ptr noundef nonnull align 8 dereferenceable(64) %0, i32 noundef %1) #4 comdat align 2 {
  %3 = alloca i16, align 2
  %4 = alloca ptr, align 8
  %5 = alloca i32, align 4
  store ptr %0, ptr %4, align 8, !tbaa !10
  store i32 %1, ptr %5, align 4, !tbaa !15
  %6 = load ptr, ptr %4, align 8
  %7 = load i32, ptr %5, align 4, !tbaa !15
  %8 = call noundef i32 @_ZNK6icu_7713UnicodeString6lengthEv(ptr noundef nonnull align 8 dereferenceable(64) %6)
  %9 = icmp ult i32 %7, %8
  br i1 %9, label %10, label %16

10:                                               ; preds = %2
  %11 = call noundef ptr @_ZNK6icu_7713UnicodeString13getArrayStartEv(ptr noundef nonnull align 8 dereferenceable(64) %6)
  %12 = load i32, ptr %5, align 4, !tbaa !15
  %13 = sext i32 %12 to i64
  %14 = getelementptr inbounds i16, ptr %11, i64 %13
  %15 = load i16, ptr %14, align 2, !tbaa !32
  store i16 %15, ptr %3, align 2
  br label %17

16:                                               ; preds = %2
  store i16 -1, ptr %3, align 2
  br label %17

17:                                               ; preds = %16, %10
  %18 = load i16, ptr %3, align 2
  ret i16 %18
}

; Function Attrs: inlinehint mustprogress uwtable
define linkonce_odr noundef zeroext i16 @_ZNK6icu_7713UnicodeString6charAtEi(ptr noundef nonnull align 8 dereferenceable(64) %0, i32 noundef %1) #4 comdat align 2 {
  %3 = alloca ptr, align 8
  %4 = alloca i32, align 4
  store ptr %0, ptr %3, align 8, !tbaa !10
  store i32 %1, ptr %4, align 4, !tbaa !15
  %5 = load ptr, ptr %3, align 8
  %6 = load i32, ptr %4, align 4, !tbaa !15
  %7 = call noundef zeroext i16 @_ZNK6icu_7713UnicodeString8doCharAtEi(ptr noundef nonnull align 8 dereferenceable(64) %5, i32 noundef %6)
  ret i16 %7
}

; Function Attrs: inlinehint mustprogress nounwind uwtable
define linkonce_odr noundef i32 @_ZNK6icu_7713UnicodeString14getShortLengthEv(ptr noundef nonnull align 8 dereferenceable(64) %0) #7 comdat align 2 {
  %2 = alloca ptr, align 8
  store ptr %0, ptr %2, align 8, !tbaa !10
  %3 = load ptr, ptr %2, align 8
  %4 = getelementptr inbounds nuw %"class.icu_77::UnicodeString", ptr %3, i32 0, i32 1
  %5 = getelementptr inbounds nuw %struct.anon.0, ptr %4, i32 0, i32 0
  %6 = load i16, ptr %5, align 8, !tbaa !21
  %7 = sext i16 %6 to i32
  %8 = ashr i32 %7, 5
  ret i32 %8
}

; Function Attrs: inlinehint mustprogress nounwind uwtable
define linkonce_odr noundef signext i8 @_ZNK6icu_7713UnicodeString14hasShortLengthEv(ptr noundef nonnull align 8 dereferenceable(64) %0) #7 comdat align 2 {
  %2 = alloca ptr, align 8
  store ptr %0, ptr %2, align 8, !tbaa !10
  %3 = load ptr, ptr %2, align 8
  %4 = getelementptr inbounds nuw %"class.icu_77::UnicodeString", ptr %3, i32 0, i32 1
  %5 = getelementptr inbounds nuw %struct.anon.0, ptr %4, i32 0, i32 0
  %6 = load i16, ptr %5, align 8, !tbaa !21
  %7 = sext i16 %6 to i32
  %8 = icmp sge i32 %7, 0
  %9 = zext i1 %8 to i8
  ret i8 %9
}

; Function Attrs: inlinehint mustprogress nounwind uwtable
define internal noundef signext i8 @_ZL9U_FAILURE10UErrorCode(i32 noundef %0) #7 {
  %2 = alloca i32, align 4
  store i32 %0, ptr %2, align 4, !tbaa !19
  %3 = load i32, ptr %2, align 4, !tbaa !19
  %4 = icmp sgt i32 %3, 0
  %5 = zext i1 %4 to i8
  ret i8 %5
}

; Function Attrs: mustprogress uwtable
define noundef zeroext i1 @_ZN6icu_776number4impl10AffixUtils7hasNextERKNS1_8AffixTagERKNS_13UnicodeStringE(ptr noundef nonnull align 4 dereferenceable(16) %0, ptr noundef nonnull align 8 dereferenceable(64) %1) #2 align 2 {
  %3 = alloca i1, align 1
  %4 = alloca ptr, align 8
  %5 = alloca ptr, align 8
  store ptr %0, ptr %4, align 8, !tbaa !48
  store ptr %1, ptr %5, align 8, !tbaa !10
  %6 = load ptr, ptr %4, align 8, !tbaa !48
  %7 = getelementptr inbounds nuw %"struct.icu_77::number::impl::AffixTag", ptr %6, i32 0, i32 0
  %8 = load i32, ptr %7, align 4, !tbaa !50
  %9 = icmp slt i32 %8, 0
  br i1 %9, label %10, label %11

10:                                               ; preds = %2
  store i1 false, ptr %3, align 1
  br label %56

11:                                               ; preds = %2
  %12 = load ptr, ptr %4, align 8, !tbaa !48
  %13 = getelementptr inbounds nuw %"struct.icu_77::number::impl::AffixTag", ptr %12, i32 0, i32 0
  %14 = load i32, ptr %13, align 4, !tbaa !50
  %15 = icmp eq i32 %14, 0
  br i1 %15, label %16, label %20

16:                                               ; preds = %11
  %17 = load ptr, ptr %5, align 8, !tbaa !10
  %18 = call noundef i32 @_ZNK6icu_7713UnicodeString6lengthEv(ptr noundef nonnull align 8 dereferenceable(64) %17)
  %19 = icmp sgt i32 %18, 0
  store i1 %19, ptr %3, align 1
  br label %56

20:                                               ; preds = %11
  br label %21

21:                                               ; preds = %20
  %22 = load ptr, ptr %4, align 8, !tbaa !48
  %23 = getelementptr inbounds nuw %"struct.icu_77::number::impl::AffixTag", ptr %22, i32 0, i32 2
  %24 = load i32, ptr %23, align 4, !tbaa !51
  %25 = icmp eq i32 %24, 2
  br i1 %25, label %26, label %43

26:                                               ; preds = %21
  %27 = load ptr, ptr %4, align 8, !tbaa !48
  %28 = getelementptr inbounds nuw %"struct.icu_77::number::impl::AffixTag", ptr %27, i32 0, i32 0
  %29 = load i32, ptr %28, align 4, !tbaa !50
  %30 = load ptr, ptr %5, align 8, !tbaa !10
  %31 = call noundef i32 @_ZNK6icu_7713UnicodeString6lengthEv(ptr noundef nonnull align 8 dereferenceable(64) %30)
  %32 = sub nsw i32 %31, 1
  %33 = icmp eq i32 %29, %32
  br i1 %33, label %34, label %43

34:                                               ; preds = %26
  %35 = load ptr, ptr %5, align 8, !tbaa !10
  %36 = load ptr, ptr %4, align 8, !tbaa !48
  %37 = getelementptr inbounds nuw %"struct.icu_77::number::impl::AffixTag", ptr %36, i32 0, i32 0
  %38 = load i32, ptr %37, align 4, !tbaa !50
  %39 = call noundef zeroext i16 @_ZNK6icu_7713UnicodeString6charAtEi(ptr noundef nonnull align 8 dereferenceable(64) %35, i32 noundef %38)
  %40 = zext i16 %39 to i32
  %41 = icmp eq i32 %40, 39
  br i1 %41, label %42, label %43

42:                                               ; preds = %34
  store i1 false, ptr %3, align 1
  br label %56

43:                                               ; preds = %34, %26, %21
  %44 = load ptr, ptr %4, align 8, !tbaa !48
  %45 = getelementptr inbounds nuw %"struct.icu_77::number::impl::AffixTag", ptr %44, i32 0, i32 2
  %46 = load i32, ptr %45, align 4, !tbaa !51
  %47 = icmp ne i32 %46, 0
  br i1 %47, label %48, label %49

48:                                               ; preds = %43
  store i1 true, ptr %3, align 1
  br label %56

49:                                               ; preds = %43
  %50 = load ptr, ptr %4, align 8, !tbaa !48
  %51 = getelementptr inbounds nuw %"struct.icu_77::number::impl::AffixTag", ptr %50, i32 0, i32 0
  %52 = load i32, ptr %51, align 4, !tbaa !50
  %53 = load ptr, ptr %5, align 8, !tbaa !10
  %54 = call noundef i32 @_ZNK6icu_7713UnicodeString6lengthEv(ptr noundef nonnull align 8 dereferenceable(64) %53)
  %55 = icmp slt i32 %52, %54
  store i1 %55, ptr %3, align 1
  br label %56

56:                                               ; preds = %49, %48, %42, %16, %10
  %57 = load i1, ptr %3, align 1
  ret i1 %57
}

; Function Attrs: mustprogress nounwind uwtable
define linkonce_odr void @_ZN6icu_776number4impl8AffixTagC2Ev(ptr noundef nonnull align 4 dereferenceable(16) %0) unnamed_addr #0 comdat align 2 {
  %2 = alloca ptr, align 8
  store ptr %0, ptr %2, align 8, !tbaa !48
  %3 = load ptr, ptr %2, align 8
  %4 = getelementptr inbounds nuw %"struct.icu_77::number::impl::AffixTag", ptr %3, i32 0, i32 0
  store i32 0, ptr %4, align 4, !tbaa !50
  %5 = getelementptr inbounds nuw %"struct.icu_77::number::impl::AffixTag", ptr %3, i32 0, i32 2
  store i32 0, ptr %5, align 4, !tbaa !51
  ret void
}

; Function Attrs: inlinehint mustprogress uwtable
define linkonce_odr noundef i32 @_ZNK6icu_7713UnicodeString6lengthEv(ptr noundef nonnull align 8 dereferenceable(64) %0) #4 comdat align 2 {
  %2 = alloca ptr, align 8
  store ptr %0, ptr %2, align 8, !tbaa !10
  %3 = load ptr, ptr %2, align 8
  %4 = call noundef signext i8 @_ZNK6icu_7713UnicodeString14hasShortLengthEv(ptr noundef nonnull align 8 dereferenceable(64) %3)
  %5 = icmp ne i8 %4, 0
  br i1 %5, label %6, label %8

6:                                                ; preds = %1
  %7 = call noundef i32 @_ZNK6icu_7713UnicodeString14getShortLengthEv(ptr noundef nonnull align 8 dereferenceable(64) %3)
  br label %12

8:                                                ; preds = %1
  %9 = getelementptr inbounds nuw %"class.icu_77::UnicodeString", ptr %3, i32 0, i32 1
  %10 = getelementptr inbounds nuw %struct.anon.0, ptr %9, i32 0, i32 1
  %11 = load i32, ptr %10, align 4, !tbaa !21
  br label %12

12:                                               ; preds = %8, %6
  %13 = phi i32 [ %7, %6 ], [ %11, %8 ]
  ret i32 %13
}

; Function Attrs: mustprogress uwtable
define noundef zeroext i1 @_ZN6icu_776number4impl10AffixUtils12containsTypeERKNS_13UnicodeStringENS1_16AffixPatternTypeER10UErrorCode(ptr noundef nonnull align 8 dereferenceable(64) %0, i32 noundef %1, ptr noundef nonnull align 4 dereferenceable(4) %2) #2 align 2 {
  %4 = alloca i1, align 1
  %5 = alloca ptr, align 8
  %6 = alloca i32, align 4
  %7 = alloca ptr, align 8
  %8 = alloca %"struct.icu_77::number::impl::AffixTag", align 4
  %9 = alloca %"struct.icu_77::number::impl::AffixTag", align 4
  %10 = alloca %"struct.icu_77::number::impl::AffixTag", align 4
  %11 = alloca i32, align 4
  store ptr %0, ptr %5, align 8, !tbaa !10
  store i32 %1, ptr %6, align 4, !tbaa !34
  store ptr %2, ptr %7, align 8, !tbaa !12
  %12 = load ptr, ptr %5, align 8, !tbaa !10
  %13 = call noundef i32 @_ZNK6icu_7713UnicodeString6lengthEv(ptr noundef nonnull align 8 dereferenceable(64) %12)
  %14 = icmp eq i32 %13, 0
  br i1 %14, label %15, label %16

15:                                               ; preds = %3
  store i1 false, ptr %4, align 1
  br label %46

16:                                               ; preds = %3
  call void @llvm.lifetime.start.p0(i64 16, ptr %8) #11
  call void @_ZN6icu_776number4impl8AffixTagC2Ev(ptr noundef nonnull align 4 dereferenceable(16) %8)
  br label %17

17:                                               ; preds = %43, %16
  %18 = load ptr, ptr %5, align 8, !tbaa !10
  %19 = call noundef zeroext i1 @_ZN6icu_776number4impl10AffixUtils7hasNextERKNS1_8AffixTagERKNS_13UnicodeStringE(ptr noundef nonnull align 4 dereferenceable(16) %8, ptr noundef nonnull align 8 dereferenceable(64) %18)
  br i1 %19, label %20, label %44

20:                                               ; preds = %17
  call void @llvm.lifetime.start.p0(i64 16, ptr %9) #11
  call void @llvm.memcpy.p0.p0.i64(ptr align 4 %10, ptr align 4 %8, i64 16, i1 false), !tbaa.struct !42
  %21 = load ptr, ptr %5, align 8, !tbaa !10
  %22 = load ptr, ptr %7, align 8, !tbaa !12
  %23 = getelementptr inbounds nuw { i64, i64 }, ptr %10, i32 0, i32 0
  %24 = load i64, ptr %23, align 4
  %25 = getelementptr inbounds nuw { i64, i64 }, ptr %10, i32 0, i32 1
  %26 = load i64, ptr %25, align 4
  %27 = call { i64, i64 } @_ZN6icu_776number4impl10AffixUtils9nextTokenENS1_8AffixTagERKNS_13UnicodeStringER10UErrorCode(i64 %24, i64 %26, ptr noundef nonnull align 8 dereferenceable(64) %21, ptr noundef nonnull align 4 dereferenceable(4) %22)
  %28 = getelementptr inbounds nuw { i64, i64 }, ptr %9, i32 0, i32 0
  %29 = extractvalue { i64, i64 } %27, 0
  store i64 %29, ptr %28, align 4
  %30 = getelementptr inbounds nuw { i64, i64 }, ptr %9, i32 0, i32 1
  %31 = extractvalue { i64, i64 } %27, 1
  store i64 %31, ptr %30, align 4
  call void @llvm.memcpy.p0.p0.i64(ptr align 4 %8, ptr align 4 %9, i64 16, i1 false), !tbaa.struct !42
  call void @llvm.lifetime.end.p0(i64 16, ptr %9) #11
  %32 = load ptr, ptr %7, align 8, !tbaa !12
  %33 = load i32, ptr %32, align 4, !tbaa !19
  %34 = call noundef signext i8 @_ZL9U_FAILURE10UErrorCode(i32 noundef %33)
  %35 = icmp ne i8 %34, 0
  br i1 %35, label %36, label %37

36:                                               ; preds = %20
  store i1 false, ptr %4, align 1
  store i32 1, ptr %11, align 4
  br label %45

37:                                               ; preds = %20
  %38 = getelementptr inbounds nuw %"struct.icu_77::number::impl::AffixTag", ptr %8, i32 0, i32 3
  %39 = load i32, ptr %38, align 4, !tbaa !43
  %40 = load i32, ptr %6, align 4, !tbaa !34
  %41 = icmp eq i32 %39, %40
  br i1 %41, label %42, label %43

42:                                               ; preds = %37
  store i1 true, ptr %4, align 1
  store i32 1, ptr %11, align 4
  br label %45

43:                                               ; preds = %37
  br label %17, !llvm.loop !54

44:                                               ; preds = %17
  store i1 false, ptr %4, align 1
  store i32 1, ptr %11, align 4
  br label %45

45:                                               ; preds = %44, %42, %36
  call void @llvm.lifetime.end.p0(i64 16, ptr %8) #11
  br label %46

46:                                               ; preds = %45, %15
  %47 = load i1, ptr %4, align 1
  ret i1 %47
}