; Function Attrs: mustprogress uwtable
define noundef zeroext i1 @_ZN6icu_776number4impl10AffixUtils12containsTypeERKNS_13UnicodeStringENS1_16AffixPatternTypeER10UErrorCode(ptr noundef nonnull align 8 dereferenceable(64) %0, i32 noundef %1, ptr noundef nonnull align 4 captures(none) dereferenceable(4) %2) local_unnamed_addr #3 align 2 {
  %4 = getelementptr inbounds nuw i8, ptr %0, i64 8
  %5 = load i16, ptr %4, align 8, !tbaa !3
  %6 = icmp slt i16 %5, 0
  %7 = ashr i16 %5, 5
  %8 = sext i16 %7 to i32
  %9 = getelementptr inbounds nuw i8, ptr %0, i64 12
  %10 = load i32, ptr %9, align 4
  %11 = select i1 %6, i32 %10, i32 %8
  %12 = icmp eq i32 %11, 0
  br i1 %12, label %_ZN6icu_776number4impl10AffixUtils7hasNextERKNS1_8AffixTagERKNS_13UnicodeStringE.exit.thread11, label %.preheader

.preheader:                                       ; preds = %3
  %13 = getelementptr inbounds nuw i8, ptr %0, i64 10
  %14 = getelementptr inbounds nuw i8, ptr %0, i64 24
  br label %15

15:                                               ; preds = %.preheader, %55
  %.sroa.6.0 = phi i64 [ %56, %55 ], [ 0, %.preheader ]
  %.sroa.0.0 = phi i64 [ %57, %55 ], [ 0, %.preheader ]
  %.sroa.0.0.extract.trunc = trunc i64 %.sroa.0.0 to i32
  %16 = icmp slt i32 %.sroa.0.0.extract.trunc, 0
  br i1 %16, label %_ZN6icu_776number4impl10AffixUtils7hasNextERKNS1_8AffixTagERKNS_13UnicodeStringE.exit.thread11, label %17

17:                                               ; preds = %15
  %18 = icmp eq i32 %.sroa.0.0.extract.trunc, 0
  br i1 %18, label %19, label %27

19:                                               ; preds = %17
  %20 = load i16, ptr %4, align 8, !tbaa !3
  %21 = icmp slt i16 %20, 0
  %22 = ashr i16 %20, 5
  %23 = sext i16 %22 to i32
  %24 = load i32, ptr %9, align 4
  %25 = select i1 %21, i32 %24, i32 %23
  %26 = icmp sgt i32 %25, 0
  br i1 %26, label %_ZN6icu_776number4impl10AffixUtils7hasNextERKNS1_8AffixTagERKNS_13UnicodeStringE.exit.thread, label %_ZN6icu_776number4impl10AffixUtils7hasNextERKNS1_8AffixTagERKNS_13UnicodeStringE.exit.thread11

27:                                               ; preds = %17
  %.sroa.6.8.extract.trunc = trunc i64 %.sroa.6.0 to i32
  switch i32 %.sroa.6.8.extract.trunc, label %_ZN6icu_776number4impl10AffixUtils7hasNextERKNS1_8AffixTagERKNS_13UnicodeStringE.exit.thread [
    i32 2, label %28
    i32 0, label %_ZN6icu_776number4impl10AffixUtils7hasNextERKNS1_8AffixTagERKNS_13UnicodeStringE.exit
  ]

28:                                               ; preds = %27
  %29 = load i16, ptr %4, align 8, !tbaa !3
  %30 = icmp slt i16 %29, 0
  %31 = ashr i16 %29, 5
  %32 = sext i16 %31 to i32
  %33 = load i32, ptr %9, align 4
  %34 = select i1 %30, i32 %33, i32 %32
  %35 = add nsw i32 %34, -1
  %36 = icmp eq i32 %35, %.sroa.0.0.extract.trunc
  %37 = icmp ugt i32 %34, %.sroa.0.0.extract.trunc
  %or.cond.i = and i1 %37, %36
  br i1 %or.cond.i, label %_ZNK6icu_7713UnicodeString6charAtEi.exit.i, label %_ZN6icu_776number4impl10AffixUtils7hasNextERKNS1_8AffixTagERKNS_13UnicodeStringE.exit.thread

_ZNK6icu_7713UnicodeString6charAtEi.exit.i:       ; preds = %28
  %38 = and i16 %29, 2
  %.not.i.i.i.i = icmp eq i16 %38, 0
  %39 = load ptr, ptr %14, align 8
  %40 = select i1 %.not.i.i.i.i, ptr %39, ptr %13
  %41 = and i64 %.sroa.0.0, 2147483647
  %42 = getelementptr inbounds nuw i16, ptr %40, i64 %41
  %43 = load i16, ptr %42, align 2, !tbaa !13
  %44 = icmp eq i16 %43, 39
  br i1 %44, label %_ZN6icu_776number4impl10AffixUtils7hasNextERKNS1_8AffixTagERKNS_13UnicodeStringE.exit.thread11, label %_ZN6icu_776number4impl10AffixUtils7hasNextERKNS1_8AffixTagERKNS_13UnicodeStringE.exit.thread

_ZN6icu_776number4impl10AffixUtils7hasNextERKNS1_8AffixTagERKNS_13UnicodeStringE.exit: ; preds = %27
  %45 = load i16, ptr %4, align 8, !tbaa !3
  %46 = icmp slt i16 %45, 0
  %47 = ashr i16 %45, 5
  %48 = sext i16 %47 to i32
  %49 = load i32, ptr %9, align 4
  %50 = select i1 %46, i32 %49, i32 %48
  %51 = icmp sgt i32 %50, %.sroa.0.0.extract.trunc
  br i1 %51, label %_ZN6icu_776number4impl10AffixUtils7hasNextERKNS1_8AffixTagERKNS_13UnicodeStringE.exit.thread, label %_ZN6icu_776number4impl10AffixUtils7hasNextERKNS1_8AffixTagERKNS_13UnicodeStringE.exit.thread11

_ZN6icu_776number4impl10AffixUtils7hasNextERKNS1_8AffixTagERKNS_13UnicodeStringE.exit.thread: ; preds = %28, %_ZNK6icu_7713UnicodeString6charAtEi.exit.i, %27, %19, %_ZN6icu_776number4impl10AffixUtils7hasNextERKNS1_8AffixTagERKNS_13UnicodeStringE.exit
  %52 = tail call { i64, i64 } @_ZN6icu_776number4impl10AffixUtils9nextTokenENS1_8AffixTagERKNS_13UnicodeStringER10UErrorCode(i64 %.sroa.0.0, i64 %.sroa.6.0, ptr noundef nonnull align 8 dereferenceable(64) %0, ptr noundef nonnull align 4 dereferenceable(4) %2)
  %53 = load i32, ptr %2, align 4, !tbaa !8
  %54 = icmp slt i32 %53, 1
  br i1 %54, label %55, label %_ZN6icu_776number4impl10AffixUtils7hasNextERKNS1_8AffixTagERKNS_13UnicodeStringE.exit.thread11

55:                                               ; preds = %_ZN6icu_776number4impl10AffixUtils7hasNextERKNS1_8AffixTagERKNS_13UnicodeStringE.exit.thread
  %56 = extractvalue { i64, i64 } %52, 1
  %57 = extractvalue { i64, i64 } %52, 0
  %.sroa.6.12.extract.shift = lshr i64 %56, 32
  %.sroa.6.12.extract.trunc = trunc nuw i64 %.sroa.6.12.extract.shift to i32
  %58 = icmp eq i32 %1, %.sroa.6.12.extract.trunc
  br i1 %58, label %_ZN6icu_776number4impl10AffixUtils7hasNextERKNS1_8AffixTagERKNS_13UnicodeStringE.exit.thread11, label %15, !llvm.loop !25

_ZN6icu_776number4impl10AffixUtils7hasNextERKNS1_8AffixTagERKNS_13UnicodeStringE.exit.thread11: ; preds = %_ZNK6icu_7713UnicodeString6charAtEi.exit.i, %15, %_ZN6icu_776number4impl10AffixUtils7hasNextERKNS1_8AffixTagERKNS_13UnicodeStringE.exit.thread, %55, %_ZN6icu_776number4impl10AffixUtils7hasNextERKNS1_8AffixTagERKNS_13UnicodeStringE.exit, %19, %3
  %.0 = phi i1 [ false, %3 ], [ false, %_ZNK6icu_7713UnicodeString6charAtEi.exit.i ], [ false, %15 ], [ false, %19 ], [ false, %_ZN6icu_776number4impl10AffixUtils7hasNextERKNS1_8AffixTagERKNS_13UnicodeStringE.exit ], [ true, %55 ], [ false, %_ZN6icu_776number4impl10AffixUtils7hasNextERKNS1_8AffixTagERKNS_13UnicodeStringE.exit.thread ]
  ret i1 %.0
}